target datalayout = "e-m:e-p270:32:32-p271:32:32-p272:64:64-i64:64-i128:128-f80:128-n8:16:32:64-S128"
target triple = "x86_64-pc-linux-gnu"

%struct.PJconsts = type { ptr, ptr, ptr, ptr, ptr, ptr, ptr, ptr, ptr, ptr, ptr, ptr, i32, ptr, ptr, ptr, ptr, ptr, ptr, ptr, ptr, double, double, double, double, double, double, double, double, double, double, double, double, double, double, double, double, double, double, double, double, double, double, i32, i32, i32, i32, i32, i32, i32, i32, i32, i32, i32, ptr, ptr, ptr, ptr, ptr, ptr, double, double, double, double, double, double, double, double, double, double, double, i32, [7 x double], i32, ptr, ptr, double, double, i32, [4 x i8], %"class.std::shared_ptr", i8, double, i8, %"class.std::__cxx11::basic_string", %"class.std::__cxx11::basic_string", %"class.std::__cxx11::basic_string", i8, %"class.std::vector", i32, %"class.std::vector.3", i32, i8, i8, i8, ptr }
%"class.std::shared_ptr" = type { %"class.std::__shared_ptr" }
%"class.std::__shared_ptr" = type { ptr, %"class.std::__shared_count" }
%"class.std::__shared_count" = type { ptr }
%"class.std::__cxx11::basic_string" = type { %"struct.std::__cxx11::basic_string<char>::_Alloc_hider", i64, %union.anon }
%"struct.std::__cxx11::basic_string<char>::_Alloc_hider" = type { ptr }
%union.anon = type { i64, [8 x i8] }
%"class.std::vector" = type { %"struct.std::_Vector_base" }
%"struct.std::_Vector_base" = type { %"struct.std::_Vector_base<osgeo::proj::operation::GridDescription, std::allocator<osgeo::proj::operation::GridDescription>>::_Vector_impl" }
%"struct.std::_Vector_base<osgeo::proj::operation::GridDescription, std::allocator<osgeo::proj::operation::GridDescription>>::_Vector_impl" = type { %"struct.std::_Vector_base<osgeo::proj::operation::GridDescription, std::allocator<osgeo::proj::operation::GridDescription>>::_Vector_impl_data" }
%"struct.std::_Vector_base<osgeo::proj::operation::GridDescription, std::allocator<osgeo::proj::operation::GridDescription>>::_Vector_impl_data" = type { ptr, ptr, ptr }
%"class.std::vector.3" = type { %"struct.std::_Vector_base.4" }
%"struct.std::_Vector_base.4" = type { %"struct.std::_Vector_base<PJCoordOperation, std::allocator<PJCoordOperation>>::_Vector_impl" }
%"struct.std::_Vector_base<PJCoordOperation, std::allocator<PJCoordOperation>>::_Vector_impl" = type { %"struct.std::_Vector_base<PJCoordOperation, std::allocator<PJCoordOperation>>::_Vector_impl_data" }
%"struct.std::_Vector_base<PJCoordOperation, std::allocator<PJCoordOperation>>::_Vector_impl_data" = type { ptr, ptr, ptr }
%union.PROJVALUE = type { double }
%"struct.(anonymous namespace)::pj_oea" = type { double, double, double, double, double, double, double, double, double, double, double }

@.str.1 = private unnamed_addr constant [3 x i8] c"dn\00", align 1
@.str.2 = private unnamed_addr constant [38 x i8] c"Invalid value for n: it should be > 0\00", align 1
@.str.3 = private unnamed_addr constant [3 x i8] c"dm\00", align 1
@.str.4 = private unnamed_addr constant [38 x i8] c"Invalid value for m: it should be > 0\00", align 1
@.str.5 = private unnamed_addr constant [7 x i8] c"rtheta\00", align 1

; Function Attrs: mustprogress uwtable
define hidden noundef ptr @_Z32pj_projection_specific_setup_oeaP8PJconsts(ptr noundef %0) #0 {
  %2 = alloca ptr, align 8
  %3 = alloca ptr, align 8
  %4 = alloca ptr, align 8
  %5 = alloca i32, align 4
  %6 = alloca %union.PROJVALUE, align 8
  %7 = alloca %union.PROJVALUE, align 8
  %8 = alloca %union.PROJVALUE, align 8
  store ptr %0, ptr %3, align 8, !tbaa !3
  call void @llvm.lifetime.start.p0(i64 8, ptr %4) #7
  %9 = call noalias ptr @calloc(i64 noundef 1, i64 noundef 88) #8
  store ptr %9, ptr %4, align 8, !tbaa !41
  %10 = load ptr, ptr %4, align 8, !tbaa !41
  %11 = icmp eq ptr null, %10
  br i1 %11, label %12, label %15

12:                                               ; preds = %1
  %13 = load ptr, ptr %3, align 8, !tbaa !3
  %14 = call noundef ptr @_Z21pj_default_destructorP8PJconstsi(ptr noundef %13, i32 noundef 4096)
  store ptr %14, ptr %2, align 8
  store i32 1, ptr %5, align 4
  br label %119

15:                                               ; preds = %1
  %16 = load ptr, ptr %4, align 8, !tbaa !41
  %17 = load ptr, ptr %3, align 8, !tbaa !3
  %18 = getelementptr inbounds nuw %struct.PJconsts, ptr %17, i32 0, i32 11
  store ptr %16, ptr %18, align 8, !tbaa !43
  call void @llvm.lifetime.start.p0(i64 8, ptr %6) #7
  %19 = load ptr, ptr %3, align 8, !tbaa !3
  %20 = getelementptr inbounds nuw %struct.PJconsts, ptr %19, i32 0, i32 0
  %21 = load ptr, ptr %20, align 8, !tbaa !44
  %22 = load ptr, ptr %3, align 8, !tbaa !3
  %23 = getelementptr inbounds nuw %struct.PJconsts, ptr %22, i32 0, i32 3
  %24 = load ptr, ptr %23, align 8, !tbaa !45
  %25 = call i64 @_Z8pj_paramP6pj_ctxP8ARG_listPKc(ptr noundef %21, ptr noundef %24, ptr noundef @.str.1)
  %26 = getelementptr inbounds nuw %union.PROJVALUE, ptr %6, i32 0, i32 0
  store i64 %25, ptr %26, align 8
  %27 = load double, ptr %6, align 8, !tbaa !46
  %28 = load ptr, ptr %4, align 8, !tbaa !41
  %29 = getelementptr inbounds nuw %"struct.(anonymous namespace)::pj_oea", ptr %28, i32 0, i32 2
  store double %27, ptr %29, align 8, !tbaa !47
  %30 = fcmp ole double %27, 0.000000e+00
  call void @llvm.lifetime.end.p0(i64 8, ptr %6) #7
  br i1 %30, label %31, label %35

31:                                               ; preds = %15
  %32 = load ptr, ptr %3, align 8, !tbaa !3
  call void (ptr, ptr, ...) @_Z14proj_log_errorPK8PJconstsPKcz(ptr noundef %32, ptr noundef @.str.2)
  %33 = load ptr, ptr %3, align 8, !tbaa !3
  %34 = call noundef ptr @_Z21pj_default_destructorP8PJconstsi(ptr noundef %33, i32 noundef 1027)
  store ptr %34, ptr %2, align 8
  store i32 1, ptr %5, align 4
  br label %119

35:                                               ; preds = %15
  call void @llvm.lifetime.start.p0(i64 8, ptr %7) #7
  %36 = load ptr, ptr %3, align 8, !tbaa !3
  %37 = getelementptr inbounds nuw %struct.PJconsts, ptr %36, i32 0, i32 0
  %38 = load ptr, ptr %37, align 8, !tbaa !44
  %39 = load ptr, ptr %3, align 8, !tbaa !3
  %40 = getelementptr inbounds nuw %struct.PJconsts, ptr %39, i32 0, i32 3
  %41 = load ptr, ptr %40, align 8, !tbaa !45
  %42 = call i64 @_Z8pj_paramP6pj_ctxP8ARG_listPKc(ptr noundef %38, ptr noundef %41, ptr noundef @.str.3)
  %43 = getelementptr inbounds nuw %union.PROJVALUE, ptr %7, i32 0, i32 0
  store i64 %42, ptr %43, align 8
  %44 = load double, ptr %7, align 8, !tbaa !46
  %45 = load ptr, ptr %4, align 8, !tbaa !41
  %46 = getelementptr inbounds nuw %"struct.(anonymous namespace)::pj_oea", ptr %45, i32 0, i32 1
  store double %44, ptr %46, align 8, !tbaa !49
  %47 = fcmp ole double %44, 0.000000e+00
  call void @llvm.lifetime.end.p0(i64 8, ptr %7) #7
  br i1 %47, label %48, label %52

48:                                               ; preds = %35
  %49 = load ptr, ptr %3, align 8, !tbaa !3
  call void (ptr, ptr, ...) @_Z14proj_log_errorPK8PJconstsPKcz(ptr noundef %49, ptr noundef @.str.4)
  %50 = load ptr, ptr %3, align 8, !tbaa !3
  %51 = call noundef ptr @_Z21pj_default_destructorP8PJconstsi(ptr noundef %50, i32 noundef 1027)
  store ptr %51, ptr %2, align 8
  store i32 1, ptr %5, align 4
  br label %119

52:                                               ; preds = %35
  call void @llvm.lifetime.start.p0(i64 8, ptr %8) #7
  %53 = load ptr, ptr %3, align 8, !tbaa !3
  %54 = getelementptr inbounds nuw %struct.PJconsts, ptr %53, i32 0, i32 0
  %55 = load ptr, ptr %54, align 8, !tbaa !44
  %56 = load ptr, ptr %3, align 8, !tbaa !3
  %57 = getelementptr inbounds nuw %struct.PJconsts, ptr %56, i32 0, i32 3
  %58 = load ptr, ptr %57, align 8, !tbaa !45
  %59 = call i64 @_Z8pj_paramP6pj_ctxP8ARG_listPKc(ptr noundef %55, ptr noundef %58, ptr noundef @.str.5)
  %60 = getelementptr inbounds nuw %union.PROJVALUE, ptr %8, i32 0, i32 0
  store i64 %59, ptr %60, align 8
  %61 = load double, ptr %8, align 8, !tbaa !46
  %62 = load ptr, ptr %4, align 8, !tbaa !41
  %63 = getelementptr inbounds nuw %"struct.(anonymous namespace)::pj_oea", ptr %62, i32 0, i32 0
  store double %61, ptr %63, align 8, !tbaa !50
  call void @llvm.lifetime.end.p0(i64 8, ptr %8) #7
  %64 = load ptr, ptr %3, align 8, !tbaa !3
  %65 = getelementptr inbounds nuw %struct.PJconsts, ptr %64, i32 0, i32 61
  %66 = load double, ptr %65, align 8, !tbaa !51
  %67 = call double @sin(double noundef %66) #7, !tbaa !52
  %68 = load ptr, ptr %4, align 8, !tbaa !41
  %69 = getelementptr inbounds nuw %"struct.(anonymous namespace)::pj_oea", ptr %68, i32 0, i32 10
  store double %67, ptr %69, align 8, !tbaa !53
  %70 = load ptr, ptr %3, align 8, !tbaa !3
  %71 = getelementptr inbounds nuw %struct.PJconsts, ptr %70, i32 0, i32 61
  %72 = load double, ptr %71, align 8, !tbaa !51
  %73 = call double @cos(double noundef %72) #7, !tbaa !52
  %74 = load ptr, ptr %4, align 8, !tbaa !41
  %75 = getelementptr inbounds nuw %"struct.(anonymous namespace)::pj_oea", ptr %74, i32 0, i32 9
  store double %73, ptr %75, align 8, !tbaa !54
  %76 = load ptr, ptr %4, align 8, !tbaa !41
  %77 = getelementptr inbounds nuw %"struct.(anonymous namespace)::pj_oea", ptr %76, i32 0, i32 2
  %78 = load double, ptr %77, align 8, !tbaa !47
  %79 = fdiv double 1.000000e+00, %78
  %80 = load ptr, ptr %4, align 8, !tbaa !41
  %81 = getelementptr inbounds nuw %"struct.(anonymous namespace)::pj_oea", ptr %80, i32 0, i32 6
  store double %79, ptr %81, align 8, !tbaa !55
  %82 = load ptr, ptr %4, align 8, !tbaa !41
  %83 = getelementptr inbounds nuw %"struct.(anonymous namespace)::pj_oea", ptr %82, i32 0, i32 1
  %84 = load double, ptr %83, align 8, !tbaa !49
  %85 = fdiv double 1.000000e+00, %84
  %86 = load ptr, ptr %4, align 8, !tbaa !41
  %87 = getelementptr inbounds nuw %"struct.(anonymous namespace)::pj_oea", ptr %86, i32 0, i32 5
  store double %85, ptr %87, align 8, !tbaa !56
  %88 = load ptr, ptr %4, align 8, !tbaa !41
  %89 = getelementptr inbounds nuw %"struct.(anonymous namespace)::pj_oea", ptr %88, i32 0, i32 6
  %90 = load double, ptr %89, align 8, !tbaa !55
  %91 = fmul double 2.000000e+00, %90
  %92 = load ptr, ptr %4, align 8, !tbaa !41
  %93 = getelementptr inbounds nuw %"struct.(anonymous namespace)::pj_oea", ptr %92, i32 0, i32 4
  store double %91, ptr %93, align 8, !tbaa !57
  %94 = load ptr, ptr %4, align 8, !tbaa !41
  %95 = getelementptr inbounds nuw %"struct.(anonymous namespace)::pj_oea", ptr %94, i32 0, i32 5
  %96 = load double, ptr %95, align 8, !tbaa !56
  %97 = fmul double 2.000000e+00, %96
  %98 = load ptr, ptr %4, align 8, !tbaa !41
  %99 = getelementptr inbounds nuw %"struct.(anonymous namespace)::pj_oea", ptr %98, i32 0, i32 3
  store double %97, ptr %99, align 8, !tbaa !58
  %100 = load ptr, ptr %4, align 8, !tbaa !41
  %101 = getelementptr inbounds nuw %"struct.(anonymous namespace)::pj_oea", ptr %100, i32 0, i32 1
  %102 = load double, ptr %101, align 8, !tbaa !49
  %103 = fmul double 5.000000e-01, %102
  %104 = load ptr, ptr %4, align 8, !tbaa !41
  %105 = getelementptr inbounds nuw %"struct.(anonymous namespace)::pj_oea", ptr %104, i32 0, i32 7
  store double %103, ptr %105, align 8, !tbaa !59
  %106 = load ptr, ptr %4, align 8, !tbaa !41
  %107 = getelementptr inbounds nuw %"struct.(anonymous namespace)::pj_oea", ptr %106, i32 0, i32 2
  %108 = load double, ptr %107, align 8, !tbaa !47
  %109 = fmul double 5.000000e-01, %108
  %110 = load ptr, ptr %4, align 8, !tbaa !41
  %111 = getelementptr inbounds nuw %"struct.(anonymous namespace)::pj_oea", ptr %110, i32 0, i32 8
  store double %109, ptr %111, align 8, !tbaa !60
  %112 = load ptr, ptr %3, align 8, !tbaa !3
  %113 = getelementptr inbounds nuw %struct.PJconsts, ptr %112, i32 0, i32 13
  store ptr @_ZL13oea_s_forward5PJ_LPP8PJconsts, ptr %113, align 8, !tbaa !61
  %114 = load ptr, ptr %3, align 8, !tbaa !3
  %115 = getelementptr inbounds nuw %struct.PJconsts, ptr %114, i32 0, i32 14
  store ptr @_ZL13oea_s_inverse5PJ_XYP8PJconsts, ptr %115, align 8, !tbaa !62
  %116 = load ptr, ptr %3, align 8, !tbaa !3
  %117 = getelementptr inbounds nuw %struct.PJconsts, ptr %116, i32 0, i32 27
  store double 0.000000e+00, ptr %117, align 8, !tbaa !63
  %118 = load ptr, ptr %3, align 8, !tbaa !3
  store ptr %118, ptr %2, align 8
  store i32 1, ptr %5, align 4
  br label %119

119:                                              ; preds = %52, %48, %31, %12
  call void @llvm.lifetime.end.p0(i64 8, ptr %4) #7
  %120 = load ptr, ptr %2, align 8
  ret ptr %120
}