; Function Attrs: mustprogress uwtable
define hidden noundef ptr @_Z32pj_projection_specific_setup_oeaP8PJconsts(ptr noundef %0) local_unnamed_addr #0 {
  %2 = tail call noalias dereferenceable_or_null(88) ptr @calloc(i64 noundef 1, i64 noundef 88) #5
  %3 = icmp eq ptr %2, null
  br i1 %3, label %4, label %6

4:                                                ; preds = %1
  %5 = tail call noundef ptr @_Z21pj_default_destructorP8PJconstsi(ptr noundef %0, i32 noundef 4096)
  br label %53

6:                                                ; preds = %1
  %7 = getelementptr inbounds nuw i8, ptr %0, i64 88
  store ptr %2, ptr %7, align 8, !tbaa !40
  %8 = load ptr, ptr %0, align 8, !tbaa !41
  %9 = getelementptr inbounds nuw i8, ptr %0, i64 24
  %10 = load ptr, ptr %9, align 8, !tbaa !42
  %11 = tail call i64 @_Z8pj_paramP6pj_ctxP8ARG_listPKc(ptr noundef %8, ptr noundef %10, ptr noundef nonnull @.str.1)
  %12 = bitcast i64 %11 to double
  %13 = getelementptr inbounds nuw i8, ptr %2, i64 16
  store i64 %11, ptr %13, align 8, !tbaa !43
  %14 = fcmp ugt double %12, 0.000000e+00
  br i1 %14, label %17, label %15

15:                                               ; preds = %6
  tail call void (ptr, ptr, ...) @_Z14proj_log_errorPK8PJconstsPKcz(ptr noundef nonnull %0, ptr noundef nonnull @.str.2)
  %16 = tail call noundef ptr @_Z21pj_default_destructorP8PJconstsi(ptr noundef nonnull %0, i32 noundef 1027)
  br label %53

17:                                               ; preds = %6
  %18 = load ptr, ptr %0, align 8, !tbaa !41
  %19 = load ptr, ptr %9, align 8, !tbaa !42
  %20 = tail call i64 @_Z8pj_paramP6pj_ctxP8ARG_listPKc(ptr noundef %18, ptr noundef %19, ptr noundef nonnull @.str.3)
  %21 = bitcast i64 %20 to double
  %22 = getelementptr inbounds nuw i8, ptr %2, i64 8
  store i64 %20, ptr %22, align 8, !tbaa !45
  %23 = fcmp ugt double %21, 0.000000e+00
  br i1 %23, label %26, label %24

24:                                               ; preds = %17
  tail call void (ptr, ptr, ...) @_Z14proj_log_errorPK8PJconstsPKcz(ptr noundef nonnull %0, ptr noundef nonnull @.str.4)
  %25 = tail call noundef ptr @_Z21pj_default_destructorP8PJconstsi(ptr noundef nonnull %0, i32 noundef 1027)
  br label %53

26:                                               ; preds = %17
  %27 = load ptr, ptr %0, align 8, !tbaa !41
  %28 = load ptr, ptr %9, align 8, !tbaa !42
  %29 = tail call i64 @_Z8pj_paramP6pj_ctxP8ARG_listPKc(ptr noundef %27, ptr noundef %28, ptr noundef nonnull @.str.5)
  store i64 %29, ptr %2, align 8, !tbaa !46
  %30 = getelementptr inbounds nuw i8, ptr %0, i64 448
  %31 = load double, ptr %30, align 8, !tbaa !47
  %32 = tail call double @sin(double noundef %31) #6, !tbaa !48
  %33 = getelementptr inbounds nuw i8, ptr %2, i64 80
  store double %32, ptr %33, align 8, !tbaa !49
  %34 = tail call double @cos(double noundef %31) #6, !tbaa !48
  %35 = getelementptr inbounds nuw i8, ptr %2, i64 72
  store double %34, ptr %35, align 8, !tbaa !50
  %36 = load double, ptr %13, align 8, !tbaa !43
  %37 = fdiv double 1.000000e+00, %36
  %38 = getelementptr inbounds nuw i8, ptr %2, i64 48
  store double %37, ptr %38, align 8, !tbaa !51
  %39 = load double, ptr %22, align 8, !tbaa !45
  %40 = fdiv double 1.000000e+00, %39
  %41 = getelementptr inbounds nuw i8, ptr %2, i64 40
  store double %40, ptr %41, align 8, !tbaa !52
  %42 = fmul double %37, 2.000000e+00
  %43 = getelementptr inbounds nuw i8, ptr %2, i64 32
  store double %42, ptr %43, align 8, !tbaa !53
  %44 = fmul double %40, 2.000000e+00
  %45 = getelementptr inbounds nuw i8, ptr %2, i64 24
  store double %44, ptr %45, align 8, !tbaa !54
  %46 = fmul double %39, 5.000000e-01
  %47 = getelementptr inbounds nuw i8, ptr %2, i64 56
  store double %46, ptr %47, align 8, !tbaa !55
  %48 = fmul double %36, 5.000000e-01
  %49 = getelementptr inbounds nuw i8, ptr %2, i64 64
  store double %48, ptr %49, align 8, !tbaa !56
  %50 = getelementptr inbounds nuw i8, ptr %0, i64 104
  store ptr @_ZL13oea_s_forward5PJ_LPP8PJconsts, ptr %50, align 8, !tbaa !57
  %51 = getelementptr inbounds nuw i8, ptr %0, i64 112
  store ptr @_ZL13oea_s_inverse5PJ_XYP8PJconsts, ptr %51, align 8, !tbaa !58
  %52 = getelementptr inbounds nuw i8, ptr %0, i64 216
  store double 0.000000e+00, ptr %52, align 8, !tbaa !59
  br label %53

53:                                               ; preds = %26, %24, %15, %4
  %.0 = phi ptr [ %5, %4 ], [ %16, %15 ], [ %25, %24 ], [ %0, %26 ]
  ret ptr %.0
}